; Function Attrs: nofree nounwind null_pointer_is_valid sspstrong memory(read, argmem: readwrite, inaccessiblemem: none) uwtable
define hidden i32 @get_num_acks(ptr noundef readonly captures(none) %0, ptr noundef captures(none) %1) local_unnamed_addr #6 {
  %3 = getelementptr inbounds nuw i8, ptr %0, i64 72
  %.025 = load ptr, ptr %3, align 8
  %.not26 = icmp eq ptr %.025, null
  br i1 %.not26, label %._crit_edge, label %.lr.ph

.lr.ph:                                           ; preds = %2
  %4 = getelementptr inbounds nuw i8, ptr %0, i64 8
  %5 = getelementptr inbounds nuw i8, ptr %0, i64 40
  %6 = getelementptr inbounds nuw i8, ptr %0, i64 32
  %7 = getelementptr inbounds nuw i8, ptr %0, i64 64
  %8 = getelementptr inbounds nuw i8, ptr %0, i64 12
  %9 = getelementptr inbounds nuw i8, ptr %0, i64 16
  %10 = getelementptr inbounds nuw i8, ptr %0, i64 44
  %11 = getelementptr inbounds nuw i8, ptr %0, i64 48
  br label %12

12:                                               ; preds = %.lr.ph, %55
  %.028 = phi ptr [ %.025, %.lr.ph ], [ %.0, %55 ]
  %.01427 = phi i32 [ 0, %.lr.ph ], [ %.1, %55 ]
  %13 = load i16, ptr %6, align 8
  %14 = load i16, ptr %7, align 8
  %15 = getelementptr inbounds nuw i8, ptr %.028, i64 56
  %16 = getelementptr inbounds nuw i8, ptr %.028, i64 80
  %17 = getelementptr inbounds nuw i8, ptr %.028, i64 48
  %18 = load i16, ptr %17, align 8
  %19 = getelementptr inbounds nuw i8, ptr %.028, i64 50
  %20 = load i16, ptr %19, align 2
  %21 = load i32, ptr %4, align 8
  %22 = load i32, ptr %15, align 8
  %or.cond41.not.i = icmp eq i32 %21, %22
  br i1 %or.cond41.not.i, label %23, label %compare_headers.exit.thread

23:                                               ; preds = %12
  %24 = load i32, ptr %8, align 4
  %25 = getelementptr inbounds nuw i8, ptr %.028, i64 60
  %26 = load i32, ptr %25, align 4
  %or.cond42.not.i = icmp eq i32 %24, %26
  br i1 %or.cond42.not.i, label %27, label %compare_headers.exit.thread

27:                                               ; preds = %23
  %28 = icmp eq i32 %24, 0
  br i1 %28, label %cmp_address.exit.thread33.i, label %cmp_address.exit.i

cmp_address.exit.i:                               ; preds = %27
  %29 = load ptr, ptr %9, align 8
  %30 = getelementptr inbounds nuw i8, ptr %.028, i64 64
  %31 = load ptr, ptr %30, align 8
  %32 = sext i32 %24 to i64
  %bcmp.i = tail call i32 @bcmp(ptr %29, ptr %31, i64 %32)
  %.not.i = icmp eq i32 %bcmp.i, 0
  br i1 %.not.i, label %cmp_address.exit.thread33.i, label %compare_headers.exit.thread

cmp_address.exit.thread33.i:                      ; preds = %cmp_address.exit.i, %27
  %33 = load i32, ptr %5, align 8
  %34 = load i32, ptr %16, align 8
  %or.cond48.not.i = icmp eq i32 %33, %34
  br i1 %or.cond48.not.i, label %35, label %compare_headers.exit.thread

35:                                               ; preds = %cmp_address.exit.thread33.i
  %36 = load i32, ptr %10, align 4
  %37 = getelementptr inbounds nuw i8, ptr %.028, i64 84
  %38 = load i32, ptr %37, align 4
  %or.cond49.not.i = icmp eq i32 %36, %38
  br i1 %or.cond49.not.i, label %39, label %compare_headers.exit.thread

39:                                               ; preds = %35
  %40 = icmp eq i32 %36, 0
  br i1 %40, label %compare_headers.exit, label %41

41:                                               ; preds = %39
  %42 = load ptr, ptr %11, align 8
  %43 = getelementptr inbounds nuw i8, ptr %.028, i64 88
  %44 = load ptr, ptr %43, align 8
  %45 = sext i32 %36 to i64
  %bcmp45.i = tail call i32 @bcmp(ptr %42, ptr %44, i64 %45)
  %46 = icmp eq i32 %bcmp45.i, 0
  br label %compare_headers.exit

compare_headers.exit:                             ; preds = %39, %41
  %.0.i25.i = phi i1 [ %46, %41 ], [ true, %39 ]
  %47 = icmp eq i16 %13, %18
  %or.cond.i = and i1 %47, %.0.i25.i
  %48 = icmp eq i16 %14, %20
  %spec.select.i = and i1 %48, %or.cond.i
  br i1 %spec.select.i, label %55, label %compare_headers.exit.thread

compare_headers.exit.thread:                      ; preds = %35, %cmp_address.exit.thread33.i, %23, %12, %cmp_address.exit.i, %compare_headers.exit
  %49 = add i32 %.01427, 1
  %50 = getelementptr inbounds nuw i8, ptr %.028, i64 105
  %51 = load i8, ptr %50, align 1
  %52 = zext i8 %51 to i32
  %53 = load i32, ptr %1, align 4
  %54 = add i32 %53, %52
  store i32 %54, ptr %1, align 4
  br label %55

55:                                               ; preds = %compare_headers.exit, %compare_headers.exit.thread
  %.1 = phi i32 [ %.01427, %compare_headers.exit ], [ %49, %compare_headers.exit.thread ]
  %.0 = load ptr, ptr %.028, align 8
  %.not = icmp eq ptr %.0, null
  br i1 %.not, label %._crit_edge, label %12, !llvm.loop !11

._crit_edge:                                      ; preds = %55, %2
  %.014.lcssa = phi i32 [ 0, %2 ], [ %.1, %55 ]
  ret i32 %.014.lcssa
}